; Function Attrs: mustprogress uwtable
define internal void @_ZN8nanobind6detailL26ndarray_capsule_destructorEP7_object(ptr noundef %0) #11 personality ptr @__gxx_personality_v0 {
  %2 = alloca %"struct.nanobind::error_scope", align 8
  call void @llvm.lifetime.start.p0(i64 24, ptr nonnull %2) #19
  %3 = getelementptr inbounds nuw i8, ptr %2, i64 8
  %4 = getelementptr inbounds nuw i8, ptr %2, i64 16
  call void @PyErr_Fetch(ptr noundef nonnull align 8 dereferenceable(24) %2, ptr noundef nonnull %3, ptr noundef nonnull %4)
  %5 = invoke ptr @PyCapsule_GetPointer(ptr noundef %0, ptr noundef nonnull @.str.13)
          to label %6 unwind label %10

6:                                                ; preds = %1
  %.not = icmp eq ptr %5, null
  br i1 %.not, label %12, label %7

7:                                                ; preds = %6
  %8 = getelementptr inbounds nuw i8, ptr %5, i64 48
  %9 = load ptr, ptr %8, align 8
  call void @_ZN8nanobind6detail15ndarray_dec_refEPNS0_14ndarray_handleE(ptr noundef %9) #19
  br label %13

10:                                               ; preds = %12, %1
  %11 = landingpad { ptr, i32 }
          cleanup
  call void @_ZN8nanobind11error_scopeD2Ev(ptr noundef nonnull align 8 dereferenceable(24) %2) #19
  call void @llvm.lifetime.end.p0(i64 24, ptr nonnull %2) #19
  resume { ptr, i32 } %11

12:                                               ; preds = %6
  invoke void @PyErr_Clear()
          to label %13 unwind label %10

13:                                               ; preds = %12, %7
  %14 = load ptr, ptr %2, align 8
  %15 = load ptr, ptr %3, align 8
  %16 = load ptr, ptr %4, align 8
  invoke void @PyErr_Restore(ptr noundef %14, ptr noundef %15, ptr noundef %16)
          to label %_ZN8nanobind11error_scopeD2Ev.exit unwind label %17

17:                                               ; preds = %13
  %18 = landingpad { ptr, i32 }
          catch ptr null
  %19 = extractvalue { ptr, i32 } %18, 0
  call void @__clang_call_terminate(ptr %19) #20
  unreachable

_ZN8nanobind11error_scopeD2Ev.exit:               ; preds = %13
  call void @llvm.lifetime.end.p0(i64 24, ptr nonnull %2) #19
  ret void
}